; Function Attrs: nounwind uwtable
define ptr @RSA_meth_new(ptr noundef %0, i32 noundef %1) local_unnamed_addr #0 {
  %3 = tail call noalias ptr @CRYPTO_zalloc(i64 noundef 120, ptr noundef nonnull @.str, i32 noundef 22) #5
  %.not = icmp eq ptr %3, null
  br i1 %.not, label %8, label %4

4:                                                ; preds = %2
  %5 = getelementptr inbounds nuw i8, ptr %3, i64 72
  store i32 %1, ptr %5, align 8, !tbaa !3
  %6 = tail call noalias ptr @CRYPTO_strdup(ptr noundef %0, ptr noundef nonnull @.str, i32 noundef 27) #5
  store ptr %6, ptr %3, align 8, !tbaa !10
  %.not9 = icmp eq ptr %6, null
  br i1 %.not9, label %7, label %8

7:                                                ; preds = %4
  tail call void @CRYPTO_free(ptr noundef nonnull %3, ptr noundef nonnull @.str, i32 noundef 31) #5
  br label %8

8:                                                ; preds = %2, %7, %4
  %.0 = phi ptr [ %3, %4 ], [ null, %7 ], [ null, %2 ]
  ret ptr %.0
}